target datalayout = "e-m:e-p270:32:32-p271:32:32-p272:64:64-i64:64-i128:128-f80:128-n8:16:32:64-S128"
target triple = "x86_64-pc-linux-gnu"

%struct.xml_flags_t = type { i8, [3 x i8] }

@Level = internal global i32 0, align 4
@.str.20 = private unnamed_addr constant [11 x i8] c"\09\09<string>\00", align 1
@.str.21 = private unnamed_addr constant [11 x i8] c"</string>\0A\00", align 1
@.str.22 = private unnamed_addr constant [10 x i8] c"\09</attr>\0A\00", align 1
@__const.xml_puts.flags = private unnamed_addr constant %struct.xml_flags_t { i8 6, [3 x i8] zeroinitializer }, align 4
@.str.32 = private unnamed_addr constant [14 x i8] c"\09<attr name=\22\00", align 1
@.str.33 = private unnamed_addr constant [4 x i8] c"\22>\0A\00", align 1

; Function Attrs: inlinehint nounwind uwtable
define internal i32 @xml_puts(ptr noundef %0, ptr noundef %1) #5 {
  %3 = alloca ptr, align 8
  %4 = alloca ptr, align 8
  %5 = alloca %struct.xml_flags_t, align 4
  store ptr %0, ptr %3, align 8, !tbaa !9
  store ptr %1, ptr %4, align 8, !tbaa !23
  call void @llvm.lifetime.start.p0(i64 4, ptr %5) #13
  call void @llvm.memcpy.p0.p0.i64(ptr align 4 %5, ptr align 4 @__const.xml_puts.flags, i64 4, i1 false)
  %6 = load ptr, ptr %4, align 8, !tbaa !23
  %7 = load ptr, ptr %3, align 8, !tbaa !9
  %8 = load i32, ptr %5, align 4
  %9 = call i32 @xml_escape(ptr noundef %6, i32 %8, ptr noundef @put, ptr noundef %7)
  call void @llvm.lifetime.end.p0(i64 4, ptr %5) #13
  ret i32 %9
}

; Function Attrs: nounwind uwtable
define internal void @tabover(ptr noundef %0) #0 {
  %2 = alloca ptr, align 8
  %3 = alloca i32, align 4
  store ptr %0, ptr %2, align 8, !tbaa !9
  call void @llvm.lifetime.start.p0(i64 4, ptr %3) #13
  %4 = load i32, ptr @Level, align 4, !tbaa !11
  store i32 %4, ptr %3, align 4, !tbaa !11
  br label %5

5:                                                ; preds = %9, %1
  %6 = load i32, ptr %3, align 4, !tbaa !11
  %7 = add nsw i32 %6, -1
  store i32 %7, ptr %3, align 4, !tbaa !11
  %8 = icmp ne i32 %6, 0
  br i1 %8, label %9, label %12

9:                                                ; preds = %5
  %10 = load ptr, ptr %2, align 8, !tbaa !9
  %11 = call i32 @putc(i32 noundef 9, ptr noundef %10)
  br label %5, !llvm.loop !79

12:                                               ; preds = %5
  call void @llvm.lifetime.end.p0(i64 4, ptr %3) #13
  ret void
}

; Function Attrs: nounwind uwtable
define internal void @writePort(ptr noundef %0, ptr noundef %1, ptr noundef %2) #0 {
  %4 = alloca ptr, align 8
  %5 = alloca ptr, align 8
  %6 = alloca ptr, align 8
  %7 = alloca ptr, align 8
  store ptr %0, ptr %4, align 8, !tbaa !28
  store ptr %1, ptr %5, align 8, !tbaa !9
  store ptr %2, ptr %6, align 8, !tbaa !23
  call void @llvm.lifetime.start.p0(i64 8, ptr %7) #13
  %8 = load ptr, ptr %4, align 8, !tbaa !28
  %9 = load ptr, ptr %6, align 8, !tbaa !23
  %10 = call ptr @agget(ptr noundef %8, ptr noundef %9)
  store ptr %10, ptr %7, align 8, !tbaa !23
  %11 = load ptr, ptr %7, align 8, !tbaa !23
  %12 = icmp ne ptr %11, null
  br i1 %12, label %13, label %39

13:                                               ; preds = %3
  %14 = load ptr, ptr %7, align 8, !tbaa !23
  %15 = getelementptr inbounds i8, ptr %14, i64 0
  %16 = load i8, ptr %15, align 1, !tbaa !25
  %17 = sext i8 %16 to i32
  %18 = icmp ne i32 %17, 0
  br i1 %18, label %19, label %39

19:                                               ; preds = %13
  %20 = load ptr, ptr %5, align 8, !tbaa !9
  call void @tabover(ptr noundef %20)
  %21 = load ptr, ptr %5, align 8, !tbaa !9
  %22 = call i32 (ptr, ptr, ...) @fprintf(ptr noundef %21, ptr noundef @.str.32) #13
  %23 = load ptr, ptr %5, align 8, !tbaa !9
  %24 = load ptr, ptr %6, align 8, !tbaa !23
  %25 = call i32 @xml_puts(ptr noundef %23, ptr noundef %24)
  %26 = load ptr, ptr %5, align 8, !tbaa !9
  %27 = call i32 (ptr, ptr, ...) @fprintf(ptr noundef %26, ptr noundef @.str.33) #13
  %28 = load ptr, ptr %5, align 8, !tbaa !9
  call void @tabover(ptr noundef %28)
  %29 = load ptr, ptr %5, align 8, !tbaa !9
  %30 = call i32 (ptr, ptr, ...) @fprintf(ptr noundef %29, ptr noundef @.str.20) #13
  %31 = load ptr, ptr %5, align 8, !tbaa !9
  %32 = load ptr, ptr %7, align 8, !tbaa !23
  %33 = call i32 @xml_puts(ptr noundef %31, ptr noundef %32)
  %34 = load ptr, ptr %5, align 8, !tbaa !9
  %35 = call i32 (ptr, ptr, ...) @fprintf(ptr noundef %34, ptr noundef @.str.21) #13
  %36 = load ptr, ptr %5, align 8, !tbaa !9
  call void @tabover(ptr noundef %36)
  %37 = load ptr, ptr %5, align 8, !tbaa !9
  %38 = call i32 (ptr, ptr, ...) @fprintf(ptr noundef %37, ptr noundef @.str.22) #13
  br label %39

39:                                               ; preds = %19, %13, %3
  call void @llvm.lifetime.end.p0(i64 8, ptr %7) #13
  ret void
}