; Function Attrs: nounwind uwtable
define internal fastcc void @writePort(ptr noundef nonnull %0, ptr noundef %1, ptr noundef %2) unnamed_addr #0 {
  %4 = tail call ptr @agget(ptr noundef nonnull %0, ptr noundef %2) #21
  %.not = icmp eq ptr %4, null
  br i1 %.not, label %24, label %5

5:                                                ; preds = %3
  %6 = load i8, ptr %4, align 1, !tbaa !24
  %.not16 = icmp eq i8 %6, 0
  br i1 %.not16, label %24, label %7

7:                                                ; preds = %5
  %8 = load i32, ptr @Level, align 4, !tbaa !20
  %.not1.i = icmp eq i32 %8, 0
  br i1 %.not1.i, label %tabover.exit, label %.lr.ph.i

.lr.ph.i:                                         ; preds = %7, %.lr.ph.i
  %.02.i = phi i32 [ %9, %.lr.ph.i ], [ %8, %7 ]
  %9 = add nsw i32 %.02.i, -1
  %10 = tail call i32 @putc(i32 noundef 9, ptr noundef %1)
  %.not.i = icmp eq i32 %9, 0
  br i1 %.not.i, label %tabover.exit, label %.lr.ph.i, !llvm.loop !22

tabover.exit:                                     ; preds = %.lr.ph.i, %7
  %11 = tail call i64 @fwrite(ptr nonnull @.str.32, i64 13, i64 1, ptr %1)
  %12 = tail call i32 @xml_escape(ptr noundef %2, i32 6, ptr noundef nonnull @put, ptr noundef %1) #21
  %13 = tail call i64 @fwrite(ptr nonnull @.str.33, i64 3, i64 1, ptr %1)
  %14 = load i32, ptr @Level, align 4, !tbaa !20
  %.not1.i17 = icmp eq i32 %14, 0
  br i1 %.not1.i17, label %tabover.exit21, label %.lr.ph.i18

.lr.ph.i18:                                       ; preds = %tabover.exit, %.lr.ph.i18
  %.02.i19 = phi i32 [ %15, %.lr.ph.i18 ], [ %14, %tabover.exit ]
  %15 = add nsw i32 %.02.i19, -1
  %16 = tail call i32 @putc(i32 noundef 9, ptr noundef %1)
  %.not.i20 = icmp eq i32 %15, 0
  br i1 %.not.i20, label %tabover.exit21, label %.lr.ph.i18, !llvm.loop !22

tabover.exit21:                                   ; preds = %.lr.ph.i18, %tabover.exit
  %17 = tail call i64 @fwrite(ptr nonnull @.str.20, i64 10, i64 1, ptr %1)
  %18 = tail call i32 @xml_escape(ptr noundef nonnull %4, i32 6, ptr noundef nonnull @put, ptr noundef %1) #21
  %19 = tail call i64 @fwrite(ptr nonnull @.str.21, i64 10, i64 1, ptr %1)
  %20 = load i32, ptr @Level, align 4, !tbaa !20
  %.not1.i22 = icmp eq i32 %20, 0
  br i1 %.not1.i22, label %tabover.exit26, label %.lr.ph.i23

.lr.ph.i23:                                       ; preds = %tabover.exit21, %.lr.ph.i23
  %.02.i24 = phi i32 [ %21, %.lr.ph.i23 ], [ %20, %tabover.exit21 ]
  %21 = add nsw i32 %.02.i24, -1
  %22 = tail call i32 @putc(i32 noundef 9, ptr noundef %1)
  %.not.i25 = icmp eq i32 %21, 0
  br i1 %.not.i25, label %tabover.exit26, label %.lr.ph.i23, !llvm.loop !22

tabover.exit26:                                   ; preds = %.lr.ph.i23, %tabover.exit21
  %23 = tail call i64 @fwrite(ptr nonnull @.str.22, i64 9, i64 1, ptr %1)
  br label %24

24:                                               ; preds = %tabover.exit26, %5, %3
  ret void
}